target datalayout = "e-m:e-p270:32:32-p271:32:32-p272:64:64-i64:64-i128:128-f80:128-n8:16:32:64-S128"
target triple = "x86_64-pc-linux-gnu"

%"class.llvm::StringRef" = type { ptr, i64 }
%"class.llvm::SmallVector.18" = type { %"class.llvm::SmallVectorImpl.19", %"struct.llvm::SmallVectorStorage.22" }
%"class.llvm::SmallVectorImpl.19" = type { %"class.llvm::SmallVectorTemplateBase.20" }
%"class.llvm::SmallVectorTemplateBase.20" = type { %"class.llvm::SmallVectorTemplateCommon.21" }
%"class.llvm::SmallVectorTemplateCommon.21" = type { %"class.llvm::SmallVectorBase" }
%"class.llvm::SmallVectorBase" = type { ptr, i32, i32 }
%"struct.llvm::SmallVectorStorage.22" = type { [120 x i8] }
%"struct.(anonymous namespace)::JSONSymbol" = type <{ i8, [7 x i8], %"class.std::__cxx11::basic_string", i8, [7 x i8] }>
%"class.std::__cxx11::basic_string" = type { %"struct.std::__cxx11::basic_string<char>::_Alloc_hider", i64, %union.anon.23 }
%"struct.std::__cxx11::basic_string<char>::_Alloc_hider" = type { ptr }
%union.anon.23 = type { i64, [8 x i8] }
%"struct.std::pair.132" = type { %"class.llvm::SmallVector.18", %"class.std::vector.134" }
%"class.std::vector.134" = type { %"struct.std::_Vector_base.135" }
%"struct.std::_Vector_base.135" = type { %"struct.std::_Vector_base<(anonymous namespace)::JSONSymbol, std::allocator<(anonymous namespace)::JSONSymbol>>::_Vector_impl" }
%"struct.std::_Vector_base<(anonymous namespace)::JSONSymbol, std::allocator<(anonymous namespace)::JSONSymbol>>::_Vector_impl" = type { %"struct.std::_Vector_base<(anonymous namespace)::JSONSymbol, std::allocator<(anonymous namespace)::JSONSymbol>>::_Vector_impl_data" }
%"struct.std::_Vector_base<(anonymous namespace)::JSONSymbol, std::allocator<(anonymous namespace)::JSONSymbol>>::_Vector_impl_data" = type { ptr, ptr, ptr }
%"class.std::allocator" = type { i8 }
%class.anon.229 = type { ptr, ptr }

; Function Attrs: mustprogress nounwind uwtable
define internal noundef ptr @_ZN4llvm25SmallVectorTemplateCommonISt4pairINS_11SmallVectorINS_5MachO6TargetELj5EEESt6vectorIN12_GLOBAL__N_110JSONSymbolESaIS8_EEEvE5beginEv(ptr noundef nonnull align 8 dereferenceable(16) %0) #0 align 2 {
  %2 = alloca ptr, align 8
  store ptr %0, ptr %2, align 8
  %3 = load ptr, ptr %2, align 8
  %4 = getelementptr inbounds nuw %"class.llvm::SmallVectorBase", ptr %3, i32 0, i32 0
  %5 = load ptr, ptr %4, align 8
  ret ptr %5
}

; Function Attrs: mustprogress nounwind uwtable
define internal noundef ptr @_ZN4llvm25SmallVectorTemplateCommonISt4pairINS_11SmallVectorINS_5MachO6TargetELj5EEESt6vectorIN12_GLOBAL__N_110JSONSymbolESaIS8_EEEvE3endEv(ptr noundef nonnull align 8 dereferenceable(16) %0) #0 align 2 {
  %2 = alloca ptr, align 8
  store ptr %0, ptr %2, align 8
  %3 = load ptr, ptr %2, align 8
  %4 = call noundef ptr @_ZN4llvm25SmallVectorTemplateCommonISt4pairINS_11SmallVectorINS_5MachO6TargetELj5EEESt6vectorIN12_GLOBAL__N_110JSONSymbolESaIS8_EEEvE5beginEv(ptr noundef nonnull align 8 dereferenceable(16) %3)
  %5 = call noundef i64 @_ZNK4llvm15SmallVectorBaseIjE4sizeEv(ptr noundef nonnull align 8 dereferenceable(16) %3)
  %6 = getelementptr inbounds %"struct.std::pair.132", ptr %4, i64 %5
  ret ptr %6
}

; Function Attrs: mustprogress nounwind uwtable
define internal void @_ZN12_GLOBAL__N_110JSONSymbolD2Ev(ptr noundef nonnull align 8 dereferenceable(41) %0) unnamed_addr #0 align 2 {
  %2 = alloca ptr, align 8
  store ptr %0, ptr %2, align 8
  %3 = load ptr, ptr %2, align 8
  %4 = getelementptr inbounds nuw %"struct.(anonymous namespace)::JSONSymbol", ptr %3, i32 0, i32 2
  call void @_ZNSt7__cxx1112basic_stringIcSt11char_traitsIcESaIcEED1Ev(ptr noundef nonnull align 8 dereferenceable(32) %4) #13
  ret void
}

; Function Attrs: mustprogress nounwind uwtable
define internal noundef nonnull align 8 dereferenceable(160) ptr @_ZN4llvm25SmallVectorTemplateCommonISt4pairINS_11SmallVectorINS_5MachO6TargetELj5EEESt6vectorIN12_GLOBAL__N_110JSONSymbolESaIS8_EEEvE4backEv(ptr noundef nonnull align 8 dereferenceable(16) %0) #0 align 2 {
  %2 = alloca ptr, align 8
  store ptr %0, ptr %2, align 8
  %3 = load ptr, ptr %2, align 8
  %4 = call noundef ptr @_ZN4llvm25SmallVectorTemplateCommonISt4pairINS_11SmallVectorINS_5MachO6TargetELj5EEESt6vectorIN12_GLOBAL__N_110JSONSymbolESaIS8_EEEvE3endEv(ptr noundef nonnull align 8 dereferenceable(16) %3)
  %5 = getelementptr inbounds %"struct.std::pair.132", ptr %4, i64 -1
  ret ptr %5
}

; Function Attrs: mustprogress nounwind uwtable
define linkonce_odr hidden void @_ZNK4llvm9StringRef3strB5cxx11Ev(ptr dead_on_unwind noalias writable sret(%"class.std::__cxx11::basic_string") align 8 %0, ptr noundef nonnull align 8 dereferenceable(16) %1) #0 comdat align 2 {
  %3 = alloca ptr, align 8
  %4 = alloca ptr, align 8
  %5 = alloca %"class.std::allocator", align 1
  store ptr %0, ptr %3, align 8
  store ptr %1, ptr %4, align 8
  %6 = load ptr, ptr %4, align 8
  %7 = getelementptr inbounds nuw %"class.llvm::StringRef", ptr %6, i32 0, i32 0
  %8 = load ptr, ptr %7, align 8
  %9 = icmp ne ptr %8, null
  br i1 %9, label %11, label %10

10:                                               ; preds = %2
  call void @_ZNSt7__cxx1112basic_stringIcSt11char_traitsIcESaIcEEC1Ev(ptr noundef nonnull align 8 dereferenceable(32) %0) #13
  br label %16

11:                                               ; preds = %2
  %12 = getelementptr inbounds nuw %"class.llvm::StringRef", ptr %6, i32 0, i32 0
  %13 = load ptr, ptr %12, align 8
  %14 = getelementptr inbounds nuw %"class.llvm::StringRef", ptr %6, i32 0, i32 1
  %15 = load i64, ptr %14, align 8
  call void @_ZNSaIcEC1Ev(ptr noundef nonnull align 1 dereferenceable(1) %5) #13
  call void @_ZNSt7__cxx1112basic_stringIcSt11char_traitsIcESaIcEEC1EPKcmRKS3_(ptr noundef nonnull align 8 dereferenceable(32) %0, ptr noundef %13, i64 noundef %15, ptr noundef nonnull align 1 dereferenceable(1) %5)
  call void @_ZNSaIcED1Ev(ptr noundef nonnull align 1 dereferenceable(1) %5) #13
  br label %16

16:                                               ; preds = %11, %10
  ret void
}

; Function Attrs: mustprogress nounwind uwtable
define internal void @"_ZZN12_GLOBAL__N_110StubParser25collectSymbolsFromSegmentEPKN4llvm4json6ObjectERNS1_11SmallVectorISt4pairINS6_INS1_5MachO6TargetELj5EEESt6vectorINS_10JSONSymbolESaISC_EEELj1EEENS8_11SymbolFlagsEENK3$_1clENS1_9StringRefE"(ptr noundef nonnull align 8 dereferenceable(16) %0, ptr %1, i64 %2) #0 align 2 {
  %4 = alloca %"class.llvm::StringRef", align 8
  %5 = alloca ptr, align 8
  %6 = alloca %"struct.(anonymous namespace)::JSONSymbol", align 8
  %7 = getelementptr inbounds nuw { ptr, i64 }, ptr %4, i32 0, i32 0
  store ptr %1, ptr %7, align 8
  %8 = getelementptr inbounds nuw { ptr, i64 }, ptr %4, i32 0, i32 1
  store i64 %2, ptr %8, align 8
  store ptr %0, ptr %5, align 8
  %9 = load ptr, ptr %5, align 8
  %10 = getelementptr inbounds nuw %"struct.(anonymous namespace)::JSONSymbol", ptr %6, i32 0, i32 0
  store i8 1, ptr %10, align 8
  %11 = getelementptr inbounds nuw %"struct.(anonymous namespace)::JSONSymbol", ptr %6, i32 0, i32 2
  call void @_ZNK4llvm9StringRef3strB5cxx11Ev(ptr dead_on_unwind writable sret(%"class.std::__cxx11::basic_string") align 8 %11, ptr noundef nonnull align 8 dereferenceable(16) %4)
  %12 = getelementptr inbounds nuw %"struct.(anonymous namespace)::JSONSymbol", ptr %6, i32 0, i32 3
  %13 = getelementptr inbounds nuw %class.anon.229, ptr %9, i32 0, i32 1
  %14 = load ptr, ptr %13, align 8
  %15 = load i8, ptr %14, align 1
  store i8 %15, ptr %12, align 8
  %16 = getelementptr inbounds nuw %class.anon.229, ptr %9, i32 0, i32 0
  %17 = load ptr, ptr %16, align 8
  %18 = call noundef nonnull align 8 dereferenceable(160) ptr @_ZN4llvm25SmallVectorTemplateCommonISt4pairINS_11SmallVectorINS_5MachO6TargetELj5EEESt6vectorIN12_GLOBAL__N_110JSONSymbolESaIS8_EEEvE4backEv(ptr noundef nonnull align 8 dereferenceable(16) %17)
  %19 = getelementptr inbounds nuw %"struct.std::pair.132", ptr %18, i32 0, i32 1
  %20 = call noundef nonnull align 8 dereferenceable(41) ptr @_ZNSt6vectorIN12_GLOBAL__N_110JSONSymbolESaIS1_EE12emplace_backIJRS1_EEES5_DpOT_(ptr noundef nonnull align 8 dereferenceable(24) %19, ptr noundef nonnull align 8 dereferenceable(41) %6)
  call void @_ZN12_GLOBAL__N_110JSONSymbolD2Ev(ptr noundef nonnull align 8 dereferenceable(41) %6) #13
  ret void
}

; Function Attrs: mustprogress nounwind uwtable
define internal void @"_ZN4llvm12function_refIFvNS_9StringRefEEE11callback_fnIZN12_GLOBAL__N_110StubParser25collectSymbolsFromSegmentEPKNS_4json6ObjectERNS_11SmallVectorISt4pairINSB_INS_5MachO6TargetELj5EEESt6vectorINS5_10JSONSymbolESaISH_EEELj1EEENSD_11SymbolFlagsEE3$_1EEvlS1_"(i64 noundef %0, ptr %1, i64 %2) #0 align 2 {
  %4 = alloca %"class.llvm::StringRef", align 8
  %5 = alloca i64, align 8
  %6 = alloca %"class.llvm::StringRef", align 8
  %7 = getelementptr inbounds nuw { ptr, i64 }, ptr %4, i32 0, i32 0
  store ptr %1, ptr %7, align 8
  %8 = getelementptr inbounds nuw { ptr, i64 }, ptr %4, i32 0, i32 1
  store i64 %2, ptr %8, align 8
  store i64 %0, ptr %5, align 8
  %9 = load i64, ptr %5, align 8
  %10 = inttoptr i64 %9 to ptr
  call void @llvm.memcpy.p0.p0.i64(ptr align 8 %6, ptr align 8 %4, i64 16, i1 false)
  %11 = getelementptr inbounds nuw { ptr, i64 }, ptr %6, i32 0, i32 0
  %12 = load ptr, ptr %11, align 8
  %13 = getelementptr inbounds nuw { ptr, i64 }, ptr %6, i32 0, i32 1
  %14 = load i64, ptr %13, align 8
  call void @"_ZZN12_GLOBAL__N_110StubParser25collectSymbolsFromSegmentEPKN4llvm4json6ObjectERNS1_11SmallVectorISt4pairINS6_INS1_5MachO6TargetELj5EEESt6vectorINS_10JSONSymbolESaISC_EEELj1EEENS8_11SymbolFlagsEENK3$_1clENS1_9StringRefE"(ptr noundef nonnull align 8 dereferenceable(16) %10, ptr %12, i64 %14)
  ret void
}