; Function Attrs: mustprogress nounwind uwtable
define internal void @"_ZN4llvm12function_refIFvNS_9StringRefEEE11callback_fnIZN12_GLOBAL__N_110StubParser25collectSymbolsFromSegmentEPKNS_4json6ObjectERNS_11SmallVectorISt4pairINSB_INS_5MachO6TargetELj5EEESt6vectorINS5_10JSONSymbolESaISH_EEELj1EEENSD_11SymbolFlagsEE3$_1EEvlS1_"(i64 noundef %0, ptr %1, i64 %2) #0 align 2 {
  %4 = alloca %"class.std::allocator", align 1
  %5 = alloca %"struct.(anonymous namespace)::JSONSymbol", align 8
  call void @llvm.lifetime.start.p0(i64 48, ptr nonnull %5)
  store i8 1, ptr %5, align 8
  %6 = getelementptr inbounds nuw i8, ptr %5, i64 8
  call void @llvm.lifetime.start.p0(i64 1, ptr nonnull %4)
  %.not.i.i = icmp eq ptr %1, null
  br i1 %.not.i.i, label %7, label %8

7:                                                ; preds = %3
  call void @_ZNSt7__cxx1112basic_stringIcSt11char_traitsIcESaIcEEC1Ev(ptr noundef nonnull align 8 dereferenceable(32) %6) #17
  br label %"_ZZN12_GLOBAL__N_110StubParser25collectSymbolsFromSegmentEPKN4llvm4json6ObjectERNS1_11SmallVectorISt4pairINS6_INS1_5MachO6TargetELj5EEESt6vectorINS_10JSONSymbolESaISC_EEELj1EEENS8_11SymbolFlagsEENK3$_1clENS1_9StringRefE.exit"

8:                                                ; preds = %3
  call void @_ZNSaIcEC1Ev(ptr noundef nonnull align 1 dereferenceable(1) %4) #17, !noalias !504
  call void @_ZNSt7__cxx1112basic_stringIcSt11char_traitsIcESaIcEEC1EPKcmRKS3_(ptr noundef nonnull align 8 dereferenceable(32) %6, ptr noundef nonnull %1, i64 noundef %2, ptr noundef nonnull align 1 dereferenceable(1) %4) #17
  call void @_ZNSaIcED1Ev(ptr noundef nonnull align 1 dereferenceable(1) %4) #17
  br label %"_ZZN12_GLOBAL__N_110StubParser25collectSymbolsFromSegmentEPKN4llvm4json6ObjectERNS1_11SmallVectorISt4pairINS6_INS1_5MachO6TargetELj5EEESt6vectorINS_10JSONSymbolESaISC_EEELj1EEENS8_11SymbolFlagsEENK3$_1clENS1_9StringRefE.exit"

"_ZZN12_GLOBAL__N_110StubParser25collectSymbolsFromSegmentEPKN4llvm4json6ObjectERNS1_11SmallVectorISt4pairINS6_INS1_5MachO6TargetELj5EEESt6vectorINS_10JSONSymbolESaISC_EEELj1EEENS8_11SymbolFlagsEENK3$_1clENS1_9StringRefE.exit": ; preds = %7, %8
  %9 = inttoptr i64 %0 to ptr
  call void @llvm.lifetime.end.p0(i64 1, ptr nonnull %4)
  %10 = getelementptr inbounds nuw i8, ptr %5, i64 40
  %11 = getelementptr inbounds nuw i8, ptr %9, i64 8
  %12 = load ptr, ptr %11, align 8
  %13 = load i8, ptr %12, align 1
  store i8 %13, ptr %10, align 8
  %14 = load ptr, ptr %9, align 8
  %.val.i.i.i = load ptr, ptr %14, align 8
  %15 = call noundef i64 @_ZNK4llvm15SmallVectorBaseIjE4sizeEv(ptr noundef nonnull align 8 dereferenceable(16) %14) #17
  %16 = getelementptr inbounds %"struct.std::pair.132", ptr %.val.i.i.i, i64 %15
  %17 = getelementptr inbounds i8, ptr %16, i64 -24
  call fastcc void @_ZNSt6vectorIN12_GLOBAL__N_110JSONSymbolESaIS1_EE12emplace_backIJRS1_EEES5_DpOT_(ptr noundef nonnull align 8 dereferenceable(24) %17, ptr noundef nonnull align 8 dereferenceable(41) %5)
  call void @_ZNSt7__cxx1112basic_stringIcSt11char_traitsIcESaIcEED1Ev(ptr noundef nonnull align 8 dereferenceable(32) %6) #17
  call void @llvm.lifetime.end.p0(i64 48, ptr nonnull %5)
  ret void
}